target datalayout = "e-m:e-p270:32:32-p271:32:32-p272:64:64-i64:64-i128:128-f80:128-n8:16:32:64-S128"
target triple = "x86_64-unknown-linux-gnu"

%"class.EA::EAMain::PrintManager" = type { [3 x ptr] }

; Function Attrs: mustprogress uwtable
define dso_local void @_ZN2EA6EAMain12PrintManager12ClearChannelENS0_13EAMainChannelE(ptr noundef nonnull align 8 dereferenceable(24) %this, i32 noundef %channel) #4 align 2 {
entry:
  %this.addr = alloca ptr, align 8
  %channel.addr = alloca i32, align 4
  %instance = alloca ptr, align 8
  store ptr %this, ptr %this.addr, align 8
  store i32 %channel, ptr %channel.addr, align 4
  %this1 = load ptr, ptr %this.addr, align 8
  %m_Channels = getelementptr inbounds %"class.EA::EAMain::PrintManager", ptr %this1, i32 0, i32 0
  %0 = load i32, ptr %channel.addr, align 4
  %idxprom = zext i32 %0 to i64
  %arrayidx = getelementptr inbounds [3 x ptr], ptr %m_Channels, i64 0, i64 %idxprom
  %1 = load ptr, ptr %arrayidx, align 8
  %cmp = icmp ne ptr %1, null
  br i1 %cmp, label %if.then, label %if.end

if.then:                                          ; preds = %entry
  %m_Channels2 = getelementptr inbounds %"class.EA::EAMain::PrintManager", ptr %this1, i32 0, i32 0
  %2 = load i32, ptr %channel.addr, align 4
  %idxprom3 = zext i32 %2 to i64
  %arrayidx4 = getelementptr inbounds [3 x ptr], ptr %m_Channels2, i64 0, i64 %idxprom3
  %3 = load ptr, ptr %arrayidx4, align 8
  store ptr %3, ptr %instance, align 8
  %4 = load ptr, ptr %instance, align 8
  %vtable = load ptr, ptr %4, align 8
  %vfn = getelementptr inbounds ptr, ptr %vtable, i64 4
  %5 = load ptr, ptr %vfn, align 8
  call void %5(ptr noundef nonnull align 8 dereferenceable(8) %4)
  %m_Channels5 = getelementptr inbounds %"class.EA::EAMain::PrintManager", ptr %this1, i32 0, i32 0
  %6 = load i32, ptr %channel.addr, align 4
  %idxprom6 = zext i32 %6 to i64
  %arrayidx7 = getelementptr inbounds [3 x ptr], ptr %m_Channels5, i64 0, i64 %idxprom6
  store ptr null, ptr %arrayidx7, align 8
  br label %if.end

if.end:                                           ; preds = %if.then, %entry
  ret void
}