; Function Attrs: mustprogress uwtable
define dso_local void @_ZN2EA6EAMain12PrintManager12ClearChannelENS0_13EAMainChannelE(ptr nocapture noundef nonnull align 8 dereferenceable(24) %this, i32 noundef %channel) local_unnamed_addr #3 align 2 {
entry:
  %idxprom = zext i32 %channel to i64
  %arrayidx = getelementptr inbounds [3 x ptr], ptr %this, i64 0, i64 %idxprom
  %0 = load ptr, ptr %arrayidx, align 8
  %cmp.not = icmp eq ptr %0, null
  br i1 %cmp.not, label %if.end, label %if.then

if.then:                                          ; preds = %entry
  %vtable = load ptr, ptr %0, align 8
  %vfn = getelementptr inbounds i8, ptr %vtable, i64 32
  %1 = load ptr, ptr %vfn, align 8
  tail call void %1(ptr noundef nonnull align 8 dereferenceable(8) %0)
  store ptr null, ptr %arrayidx, align 8
  br label %if.end

if.end:                                           ; preds = %if.then, %entry
  ret void
}